target datalayout = "e-m:e-p270:32:32-p271:32:32-p272:64:64-i64:64-i128:128-f80:128-n8:16:32:64-S128"
target triple = "x86_64-pc-linux-gnu"

; Function Attrs: nounwind uwtable
define i32 @fdt_supernode_atdepth_offset(ptr noundef %0, i32 noundef %1, i32 noundef %2, ptr noundef %3) #0 {
  %5 = alloca i32, align 4
  %6 = alloca ptr, align 8
  %7 = alloca i32, align 4
  %8 = alloca i32, align 4
  %9 = alloca ptr, align 8
  %10 = alloca i32, align 4
  %11 = alloca i32, align 4
  %12 = alloca i32, align 4
  %13 = alloca i32, align 4
  %14 = alloca i32, align 4
  store ptr %0, ptr %6, align 8, !tbaa !3
  store i32 %1, ptr %7, align 4, !tbaa !7
  store i32 %2, ptr %8, align 4, !tbaa !7
  store ptr %3, ptr %9, align 8, !tbaa !9
  call void @llvm.lifetime.start.p0(i64 4, ptr %10) #6
  call void @llvm.lifetime.start.p0(i64 4, ptr %11) #6
  call void @llvm.lifetime.start.p0(i64 4, ptr %12) #6
  store i32 -13, ptr %12, align 4, !tbaa !7
  call void @llvm.lifetime.start.p0(i64 4, ptr %13) #6
  %15 = load ptr, ptr %6, align 8, !tbaa !3
  %16 = call i32 @fdt_ro_probe_(ptr noundef %15)
  store i32 %16, ptr %13, align 4, !tbaa !7
  %17 = icmp slt i32 %16, 0
  br i1 %17, label %18, label %20

18:                                               ; preds = %4
  %19 = load i32, ptr %13, align 4, !tbaa !7
  store i32 %19, ptr %5, align 4
  store i32 1, ptr %14, align 4
  br label %21

20:                                               ; preds = %4
  store i32 0, ptr %14, align 4
  br label %21

21:                                               ; preds = %20, %18
  call void @llvm.lifetime.end.p0(i64 4, ptr %13) #6
  %22 = load i32, ptr %14, align 4
  switch i32 %22, label %79 [
    i32 0, label %23
  ]

23:                                               ; preds = %21
  %24 = load i32, ptr %8, align 4, !tbaa !7
  %25 = icmp slt i32 %24, 0
  br i1 %25, label %26, label %27

26:                                               ; preds = %23
  store i32 -1, ptr %5, align 4
  store i32 1, ptr %14, align 4
  br label %79

27:                                               ; preds = %23
  store i32 0, ptr %10, align 4, !tbaa !7
  store i32 0, ptr %11, align 4, !tbaa !7
  br label %28

28:                                               ; preds = %61, %27
  %29 = load i32, ptr %10, align 4, !tbaa !7
  %30 = icmp sge i32 %29, 0
  br i1 %30, label %31, label %35

31:                                               ; preds = %28
  %32 = load i32, ptr %10, align 4, !tbaa !7
  %33 = load i32, ptr %7, align 4, !tbaa !7
  %34 = icmp sle i32 %32, %33
  br label %35

35:                                               ; preds = %31, %28
  %36 = phi i1 [ false, %28 ], [ %34, %31 ]
  br i1 %36, label %37, label %65

37:                                               ; preds = %35
  %38 = load i32, ptr %11, align 4, !tbaa !7
  %39 = load i32, ptr %8, align 4, !tbaa !7
  %40 = icmp eq i32 %38, %39
  br i1 %40, label %41, label %43

41:                                               ; preds = %37
  %42 = load i32, ptr %10, align 4, !tbaa !7
  store i32 %42, ptr %12, align 4, !tbaa !7
  br label %43

43:                                               ; preds = %41, %37
  %44 = load i32, ptr %10, align 4, !tbaa !7
  %45 = load i32, ptr %7, align 4, !tbaa !7
  %46 = icmp eq i32 %44, %45
  br i1 %46, label %47, label %60

47:                                               ; preds = %43
  %48 = load ptr, ptr %9, align 8, !tbaa !9
  %49 = icmp ne ptr %48, null
  br i1 %49, label %50, label %53

50:                                               ; preds = %47
  %51 = load i32, ptr %11, align 4, !tbaa !7
  %52 = load ptr, ptr %9, align 8, !tbaa !9
  store i32 %51, ptr %52, align 4, !tbaa !7
  br label %53

53:                                               ; preds = %50, %47
  %54 = load i32, ptr %8, align 4, !tbaa !7
  %55 = load i32, ptr %11, align 4, !tbaa !7
  %56 = icmp sgt i32 %54, %55
  br i1 %56, label %57, label %58

57:                                               ; preds = %53
  store i32 -1, ptr %5, align 4
  store i32 1, ptr %14, align 4
  br label %79

58:                                               ; preds = %53
  %59 = load i32, ptr %12, align 4, !tbaa !7
  store i32 %59, ptr %5, align 4
  store i32 1, ptr %14, align 4
  br label %79

60:                                               ; preds = %43
  br label %61

61:                                               ; preds = %60
  %62 = load ptr, ptr %6, align 8, !tbaa !3
  %63 = load i32, ptr %10, align 4, !tbaa !7
  %64 = call i32 @fdt_next_node(ptr noundef %62, i32 noundef %63, ptr noundef %11)
  store i32 %64, ptr %10, align 4, !tbaa !7
  br label %28, !llvm.loop !36

65:                                               ; preds = %35
  %66 = load i32, ptr %10, align 4, !tbaa !7
  %67 = icmp eq i32 %66, -1
  br i1 %67, label %71, label %68

68:                                               ; preds = %65
  %69 = load i32, ptr %10, align 4, !tbaa !7
  %70 = icmp sge i32 %69, 0
  br i1 %70, label %71, label %72

71:                                               ; preds = %68, %65
  store i32 -4, ptr %5, align 4
  store i32 1, ptr %14, align 4
  br label %79

72:                                               ; preds = %68
  %73 = load i32, ptr %10, align 4, !tbaa !7
  %74 = icmp eq i32 %73, -4
  br i1 %74, label %75, label %76

75:                                               ; preds = %72
  store i32 -11, ptr %5, align 4
  store i32 1, ptr %14, align 4
  br label %79

76:                                               ; preds = %72
  br label %77

77:                                               ; preds = %76
  %78 = load i32, ptr %10, align 4, !tbaa !7
  store i32 %78, ptr %5, align 4
  store i32 1, ptr %14, align 4
  br label %79

79:                                               ; preds = %77, %75, %71, %58, %57, %26, %21
  call void @llvm.lifetime.end.p0(i64 4, ptr %12) #6
  call void @llvm.lifetime.end.p0(i64 4, ptr %11) #6
  call void @llvm.lifetime.end.p0(i64 4, ptr %10) #6
  %80 = load i32, ptr %5, align 4
  ret i32 %80
}