; Function Attrs: nounwind uwtable
define i32 @fdt_supernode_atdepth_offset(ptr noundef %0, i32 noundef %1, i32 noundef %2, ptr noundef writeonly captures(address_is_null) %3) local_unnamed_addr #0 {
  %5 = alloca i32, align 4
  call void @llvm.lifetime.start.p0(i64 4, ptr nonnull %5) #9
  %6 = tail call i32 @fdt_ro_probe_(ptr noundef %0) #9
  %7 = icmp sgt i32 %6, -1
  br i1 %7, label %8, label %._crit_edge.thread

8:                                                ; preds = %4
  %9 = icmp slt i32 %2, 0
  br i1 %9, label %._crit_edge.thread, label %10

10:                                               ; preds = %8
  store i32 0, ptr %5, align 4, !tbaa !6
  %11 = icmp sgt i32 %1, -1
  br i1 %11, label %.lr.ph, label %._crit_edge.thread

.lr.ph:                                           ; preds = %10, %19
  %.02331 = phi i32 [ %spec.select, %19 ], [ -13, %10 ]
  %.02530 = phi i32 [ %20, %19 ], [ 0, %10 ]
  %12 = load i32, ptr %5, align 4, !tbaa !6
  %13 = icmp eq i32 %12, %2
  %spec.select = select i1 %13, i32 %.02530, i32 %.02331
  %14 = icmp eq i32 %.02530, %1
  br i1 %14, label %15, label %19

15:                                               ; preds = %.lr.ph
  %.not = icmp eq ptr %3, null
  br i1 %.not, label %17, label %16

16:                                               ; preds = %15
  store i32 %12, ptr %3, align 4, !tbaa !6
  br label %17

17:                                               ; preds = %16, %15
  %18 = icmp sgt i32 %2, %12
  %.spec.select = select i1 %18, i32 -1, i32 %spec.select
  br label %._crit_edge.thread

19:                                               ; preds = %.lr.ph
  %20 = call i32 @fdt_next_node(ptr noundef %0, i32 noundef %.02530, ptr noundef nonnull %5) #9
  %.not32 = icmp ugt i32 %20, %1
  br i1 %.not32, label %._crit_edge, label %.lr.ph, !llvm.loop !23

._crit_edge:                                      ; preds = %19
  %or.cond = icmp sgt i32 %20, -2
  br i1 %or.cond, label %._crit_edge.thread, label %21

21:                                               ; preds = %._crit_edge
  %22 = icmp eq i32 %20, -4
  %..025 = select i1 %22, i32 -11, i32 %20
  br label %._crit_edge.thread

._crit_edge.thread:                               ; preds = %10, %21, %._crit_edge, %17, %8, %4
  %.1 = phi i32 [ %6, %4 ], [ -1, %8 ], [ %.spec.select, %17 ], [ -4, %._crit_edge ], [ %..025, %21 ], [ -4, %10 ]
  call void @llvm.lifetime.end.p0(i64 4, ptr nonnull %5) #9
  ret i32 %.1
}